; Function Attrs: mustprogress uwtable
define internal noundef i32 @_ZL9corunningP9lua_State(ptr noundef %0) #0 {
  %2 = tail call noundef i32 @_Z14lua_pushthreadP9lua_State(ptr noundef %0)
  %.not = icmp eq i32 %2, 0
  br i1 %.not, label %4, label %3

3:                                                ; preds = %1
  tail call void @_Z11lua_pushnilP9lua_State(ptr noundef %0)
  br label %4

4:                                                ; preds = %3, %1
  ret i32 1
}